; ModuleID = '6/21.c'
source_filename = "6/21.c"
target datalayout = "e-m:e-p270:32:32-p271:32:32-p272:64:64-i64:64-f80:128-n8:16:32:64-S128"
target triple = "x86_64-pc-linux-gnu"

@.str = private unnamed_addr constant [6 x i8] c"%d %d\00", align 1
@.str.1 = private unnamed_addr constant [3 x i8] c"%d\00", align 1
@.str.2 = private unnamed_addr constant [4 x i8] c"%d\0A\00", align 1

; Function Attrs: noinline nounwind uwtable
define dso_local void @sub() #0 {
  %1 = alloca i32, align 4
  %2 = alloca i32, align 4
  %3 = alloca i32*, align 8
  %4 = alloca i32, align 4
  %5 = alloca i32, align 4
  %6 = call i32 (i8*, ...) @__isoc99_scanf(i8* getelementptr inbounds ([6 x i8], [6 x i8]* @.str, i64 0, i64 0), i32* %1, i32* %2)
  store i32 0, i32* %5, align 4
  %7 = call noalias i8* @malloc(i64 40000) #3
  %8 = bitcast i8* %7 to i32*
  store i32* %8, i32** %3, align 8
  store i32 0, i32* %4, align 4
  br label %9

9:                                                ; preds = %21, %0
  %10 = load i32, i32* %4, align 4
  %11 = load i32, i32* %1, align 4
  %12 = load i32, i32* %2, align 4
  %13 = mul nsw i32 %11, %12
  %14 = icmp slt i32 %10, %13
  br i1 %14, label %15, label %24

15:                                               ; preds = %9
  %16 = load i32*, i32** %3, align 8
  %17 = load i32, i32* %4, align 4
  %18 = sext i32 %17 to i64
  %19 = getelementptr inbounds i32, i32* %16, i64 %18
  %20 = call i32 (i8*, ...) @__isoc99_scanf(i8* getelementptr inbounds ([3 x i8], [3 x i8]* @.str.1, i64 0, i64 0), i32* %19)
  br label %21

21:                                               ; preds = %15
  %22 = load i32, i32* %4, align 4
  %23 = add nsw i32 %22, 1
  store i32 %23, i32* %4, align 4
  br label %9

24:                                               ; preds = %9
  store i32 1, i32* %4, align 4
  br label %25

25:                                               ; preds = %38, %24
  %26 = load i32, i32* %4, align 4
  %27 = load i32, i32* %2, align 4
  %28 = sub nsw i32 %27, 1
  %29 = icmp slt i32 %26, %28
  br i1 %29, label %30, label %41

30:                                               ; preds = %25
  %31 = load i32, i32* %5, align 4
  %32 = load i32*, i32** %3, align 8
  %33 = load i32, i32* %4, align 4
  %34 = sext i32 %33 to i64
  %35 = getelementptr inbounds i32, i32* %32, i64 %34
  %36 = load i32, i32* %35, align 4
  %37 = add nsw i32 %31, %36
  store i32 %37, i32* %5, align 4
  br label %38

38:                                               ; preds = %30
  %39 = load i32, i32* %4, align 4
  %40 = add nsw i32 %39, 1
  store i32 %40, i32* %4, align 4
  br label %25

41:                                               ; preds = %25
  %42 = load i32, i32* %1, align 4
  %43 = load i32, i32* %2, align 4
  %44 = mul nsw i32 %42, %43
  %45 = load i32, i32* %2, align 4
  %46 = sub nsw i32 %44, %45
  %47 = add nsw i32 %46, 1
  store i32 %47, i32* %4, align 4
  br label %48

48:                                               ; preds = %63, %41
  %49 = load i32, i32* %4, align 4
  %50 = load i32, i32* %1, align 4
  %51 = load i32, i32* %2, align 4
  %52 = mul nsw i32 %50, %51
  %53 = sub nsw i32 %52, 1
  %54 = icmp slt i32 %49, %53
  br i1 %54, label %55, label %66

55:                                               ; preds = %48
  %56 = load i32, i32* %5, align 4
  %57 = load i32*, i32** %3, align 8
  %58 = load i32, i32* %4, align 4
  %59 = sext i32 %58 to i64
  %60 = getelementptr inbounds i32, i32* %57, i64 %59
  %61 = load i32, i32* %60, align 4
  %62 = add nsw i32 %56, %61
  store i32 %62, i32* %5, align 4
  br label %63

63:                                               ; preds = %55
  %64 = load i32, i32* %4, align 4
  %65 = add nsw i32 %64, 1
  store i32 %65, i32* %4, align 4
  br label %48

66:                                               ; preds = %48
  store i32 0, i32* %4, align 4
  br label %67

67:                                               ; preds = %93, %66
  %68 = load i32, i32* %4, align 4
  %69 = load i32, i32* %1, align 4
  %70 = load i32, i32* %2, align 4
  %71 = mul nsw i32 %69, %70
  %72 = icmp slt i32 %68, %71
  br i1 %72, label %73, label %96

73:                                               ; preds = %67
  %74 = load i32, i32* %4, align 4
  %75 = load i32, i32* %2, align 4
  %76 = srem i32 %74, %75
  %77 = icmp eq i32 %76, 0
  br i1 %77, label %84, label %78

78:                                               ; preds = %73
  %79 = load i32, i32* %4, align 4
  %80 = add nsw i32 %79, 1
  %81 = load i32, i32* %2, align 4
  %82 = srem i32 %80, %81
  %83 = icmp eq i32 %82, 0
  br i1 %83, label %84, label %92

84:                                               ; preds = %78, %73
  %85 = load i32, i32* %5, align 4
  %86 = load i32*, i32** %3, align 8
  %87 = load i32, i32* %4, align 4
  %88 = sext i32 %87 to i64
  %89 = getelementptr inbounds i32, i32* %86, i64 %88
  %90 = load i32, i32* %89, align 4
  %91 = add nsw i32 %85, %90
  store i32 %91, i32* %5, align 4
  br label %92

92:                                               ; preds = %84, %78
  br label %93

93:                                               ; preds = %92
  %94 = load i32, i32* %4, align 4
  %95 = add nsw i32 %94, 1
  store i32 %95, i32* %4, align 4
  br label %67

96:                                               ; preds = %67
  %97 = load i32, i32* %5, align 4
  %98 = call i32 (i8*, ...) @printf(i8* getelementptr inbounds ([4 x i8], [4 x i8]* @.str.2, i64 0, i64 0), i32 %97)
  ret void
}

declare dso_local i32 @__isoc99_scanf(i8*, ...) #1

; Function Attrs: nounwind
declare dso_local noalias i8* @malloc(i64) #2

declare dso_local i32 @printf(i8*, ...) #1

; Function Attrs: noinline nounwind uwtable
define dso_local void @main() #0 {
  %1 = alloca i32, align 4
  %2 = alloca i32, align 4
  %3 = call i32 (i8*, ...) @__isoc99_scanf(i8* getelementptr inbounds ([3 x i8], [3 x i8]* @.str.1, i64 0, i64 0), i32* %1)
  store i32 0, i32* %2, align 4
  br label %4

4:                                                ; preds = %9, %0
  %5 = load i32, i32* %2, align 4
  %6 = load i32, i32* %1, align 4
  %7 = icmp slt i32 %5, %6
  br i1 %7, label %8, label %12

8:                                                ; preds = %4
  call void @sub()
  br label %9

9:                                                ; preds = %8
  %10 = load i32, i32* %2, align 4
  %11 = add nsw i32 %10, 1
  store i32 %11, i32* %2, align 4
  br label %4

12:                                               ; preds = %4
  ret void
}


!llvm.module.flags = !{!0}
!llvm.ident = !{!1}

!0 = !{i32 1, !"wchar_size", i32 4}
!1 = !{!"clang version 10.0.0-4ubuntu1 "}
